target datalayout = "e-m:e-p270:32:32-p271:32:32-p272:64:64-i64:64-i128:128-f80:128-n8:16:32:64-S128"
target triple = "x86_64-pc-linux-gnu"

%struct.commit = type { %struct.object, i64, ptr, ptr, i32 }
%struct.object = type { i32, %struct.object_id }
%struct.object_id = type { [32 x i8], i32 }
%struct.commit_list = type { ptr, ptr }

; Function Attrs: nounwind uwtable
define dso_local ptr @commit_list_insert(ptr noundef %0, ptr noundef %1) #0 {
  %3 = alloca ptr, align 8
  %4 = alloca ptr, align 8
  %5 = alloca ptr, align 8
  store ptr %0, ptr %3, align 8, !tbaa !17
  store ptr %1, ptr %4, align 8, !tbaa !99
  call void @llvm.lifetime.start.p0(i64 8, ptr %5) #11
  %6 = call ptr @xmalloc(i64 noundef 16)
  store ptr %6, ptr %5, align 8, !tbaa !58
  %7 = load ptr, ptr %3, align 8, !tbaa !17
  %8 = load ptr, ptr %5, align 8, !tbaa !58
  %9 = getelementptr inbounds nuw %struct.commit_list, ptr %8, i32 0, i32 0
  store ptr %7, ptr %9, align 8, !tbaa !105
  %10 = load ptr, ptr %4, align 8, !tbaa !99
  %11 = load ptr, ptr %10, align 8, !tbaa !58
  %12 = load ptr, ptr %5, align 8, !tbaa !58
  %13 = getelementptr inbounds nuw %struct.commit_list, ptr %12, i32 0, i32 1
  store ptr %11, ptr %13, align 8, !tbaa !107
  %14 = load ptr, ptr %5, align 8, !tbaa !58
  %15 = load ptr, ptr %4, align 8, !tbaa !99
  store ptr %14, ptr %15, align 8, !tbaa !58
  %16 = load ptr, ptr %5, align 8, !tbaa !58
  call void @llvm.lifetime.end.p0(i64 8, ptr %5) #11
  ret ptr %16
}

; Function Attrs: nounwind uwtable
define dso_local ptr @pop_commit(ptr noundef %0) #0 {
  %2 = alloca ptr, align 8
  %3 = alloca ptr, align 8
  %4 = alloca ptr, align 8
  store ptr %0, ptr %2, align 8, !tbaa !99
  call void @llvm.lifetime.start.p0(i64 8, ptr %3) #11
  %5 = load ptr, ptr %2, align 8, !tbaa !99
  %6 = load ptr, ptr %5, align 8, !tbaa !58
  store ptr %6, ptr %3, align 8, !tbaa !58
  call void @llvm.lifetime.start.p0(i64 8, ptr %4) #11
  %7 = load ptr, ptr %3, align 8, !tbaa !58
  %8 = icmp ne ptr %7, null
  br i1 %8, label %9, label %13

9:                                                ; preds = %1
  %10 = load ptr, ptr %3, align 8, !tbaa !58
  %11 = getelementptr inbounds nuw %struct.commit_list, ptr %10, i32 0, i32 0
  %12 = load ptr, ptr %11, align 8, !tbaa !105
  br label %14

13:                                               ; preds = %1
  br label %14

14:                                               ; preds = %13, %9
  %15 = phi ptr [ %12, %9 ], [ null, %13 ]
  store ptr %15, ptr %4, align 8, !tbaa !17
  %16 = load ptr, ptr %3, align 8, !tbaa !58
  %17 = icmp ne ptr %16, null
  br i1 %17, label %18, label %24

18:                                               ; preds = %14
  %19 = load ptr, ptr %3, align 8, !tbaa !58
  %20 = getelementptr inbounds nuw %struct.commit_list, ptr %19, i32 0, i32 1
  %21 = load ptr, ptr %20, align 8, !tbaa !107
  %22 = load ptr, ptr %2, align 8, !tbaa !99
  store ptr %21, ptr %22, align 8, !tbaa !58
  %23 = load ptr, ptr %3, align 8, !tbaa !58
  call void @free(ptr noundef %23) #11
  br label %24

24:                                               ; preds = %18, %14
  %25 = load ptr, ptr %4, align 8, !tbaa !17
  call void @llvm.lifetime.end.p0(i64 8, ptr %4) #11
  call void @llvm.lifetime.end.p0(i64 8, ptr %3) #11
  ret ptr %25
}

; Function Attrs: nounwind uwtable
define internal void @clear_commit_marks_1(ptr noundef %0, ptr noundef %1, i32 noundef %2) #0 {
  %4 = alloca ptr, align 8
  %5 = alloca ptr, align 8
  %6 = alloca i32, align 4
  %7 = alloca ptr, align 8
  %8 = alloca i32, align 4
  store ptr %0, ptr %4, align 8, !tbaa !99
  store ptr %1, ptr %5, align 8, !tbaa !17
  store i32 %2, ptr %6, align 4, !tbaa !11
  br label %9

9:                                                ; preds = %71, %3
  %10 = load ptr, ptr %5, align 8, !tbaa !17
  %11 = icmp ne ptr %10, null
  br i1 %11, label %12, label %72

12:                                               ; preds = %9
  call void @llvm.lifetime.start.p0(i64 8, ptr %7) #11
  %13 = load i32, ptr %6, align 4, !tbaa !11
  %14 = load ptr, ptr %5, align 8, !tbaa !17
  %15 = getelementptr inbounds nuw %struct.commit, ptr %14, i32 0, i32 0
  %16 = load i32, ptr %15, align 8
  %17 = lshr i32 %16, 4
  %18 = and i32 %13, %17
  %19 = icmp ne i32 %18, 0
  br i1 %19, label %21, label %20

20:                                               ; preds = %12
  store i32 1, ptr %8, align 4
  br label %69

21:                                               ; preds = %12
  %22 = load i32, ptr %6, align 4, !tbaa !11
  %23 = xor i32 %22, -1
  %24 = load ptr, ptr %5, align 8, !tbaa !17
  %25 = getelementptr inbounds nuw %struct.commit, ptr %24, i32 0, i32 0
  %26 = load i32, ptr %25, align 8
  %27 = lshr i32 %26, 4
  %28 = and i32 %27, %23
  %29 = load i32, ptr %25, align 8
  %30 = and i32 %28, 268435455
  %31 = shl i32 %30, 4
  %32 = and i32 %29, 15
  %33 = or i32 %32, %31
  store i32 %33, ptr %25, align 8
  %34 = load ptr, ptr %5, align 8, !tbaa !17
  %35 = getelementptr inbounds nuw %struct.commit, ptr %34, i32 0, i32 2
  %36 = load ptr, ptr %35, align 8, !tbaa !52
  store ptr %36, ptr %7, align 8, !tbaa !58
  %37 = load ptr, ptr %7, align 8, !tbaa !58
  %38 = icmp ne ptr %37, null
  br i1 %38, label %40, label %39

39:                                               ; preds = %21
  store i32 1, ptr %8, align 4
  br label %69

40:                                               ; preds = %21
  br label %41

41:                                               ; preds = %62, %40
  %42 = load ptr, ptr %7, align 8, !tbaa !58
  %43 = getelementptr inbounds nuw %struct.commit_list, ptr %42, i32 0, i32 1
  %44 = load ptr, ptr %43, align 8, !tbaa !107
  store ptr %44, ptr %7, align 8, !tbaa !58
  %45 = icmp ne ptr %44, null
  br i1 %45, label %46, label %63

46:                                               ; preds = %41
  %47 = load ptr, ptr %7, align 8, !tbaa !58
  %48 = getelementptr inbounds nuw %struct.commit_list, ptr %47, i32 0, i32 0
  %49 = load ptr, ptr %48, align 8, !tbaa !105
  %50 = getelementptr inbounds nuw %struct.commit, ptr %49, i32 0, i32 0
  %51 = load i32, ptr %50, align 8
  %52 = lshr i32 %51, 4
  %53 = load i32, ptr %6, align 4, !tbaa !11
  %54 = and i32 %52, %53
  %55 = icmp ne i32 %54, 0
  br i1 %55, label %56, label %62

56:                                               ; preds = %46
  %57 = load ptr, ptr %7, align 8, !tbaa !58
  %58 = getelementptr inbounds nuw %struct.commit_list, ptr %57, i32 0, i32 0
  %59 = load ptr, ptr %58, align 8, !tbaa !105
  %60 = load ptr, ptr %4, align 8, !tbaa !99
  %61 = call ptr @commit_list_insert(ptr noundef %59, ptr noundef %60)
  br label %62

62:                                               ; preds = %56, %46
  br label %41, !llvm.loop !133

63:                                               ; preds = %41
  %64 = load ptr, ptr %5, align 8, !tbaa !17
  %65 = getelementptr inbounds nuw %struct.commit, ptr %64, i32 0, i32 2
  %66 = load ptr, ptr %65, align 8, !tbaa !52
  %67 = getelementptr inbounds nuw %struct.commit_list, ptr %66, i32 0, i32 0
  %68 = load ptr, ptr %67, align 8, !tbaa !105
  store ptr %68, ptr %5, align 8, !tbaa !17
  store i32 0, ptr %8, align 4
  br label %69

69:                                               ; preds = %63, %39, %20
  call void @llvm.lifetime.end.p0(i64 8, ptr %7) #11
  %70 = load i32, ptr %8, align 4
  switch i32 %70, label %73 [
    i32 0, label %71
    i32 1, label %72
  ]

71:                                               ; preds = %69
  br label %9, !llvm.loop !134

72:                                               ; preds = %69, %9
  ret void

73:                                               ; preds = %69
  unreachable
}

; Function Attrs: nounwind uwtable
define dso_local void @clear_commit_marks_many(i64 noundef %0, ptr noundef %1, i32 noundef %2) #0 {
  %4 = alloca i64, align 8
  %5 = alloca ptr, align 8
  %6 = alloca i32, align 4
  %7 = alloca ptr, align 8
  %8 = alloca i64, align 8
  store i64 %0, ptr %4, align 8, !tbaa !47
  store ptr %1, ptr %5, align 8, !tbaa !129
  store i32 %2, ptr %6, align 4, !tbaa !11
  call void @llvm.lifetime.start.p0(i64 8, ptr %7) #11
  store ptr null, ptr %7, align 8, !tbaa !58
  call void @llvm.lifetime.start.p0(i64 8, ptr %8) #11
  store i64 0, ptr %8, align 8, !tbaa !47
  br label %9

9:                                                ; preds = %20, %3
  %10 = load i64, ptr %8, align 8, !tbaa !47
  %11 = load i64, ptr %4, align 8, !tbaa !47
  %12 = icmp ult i64 %10, %11
  br i1 %12, label %14, label %13

13:                                               ; preds = %9
  call void @llvm.lifetime.end.p0(i64 8, ptr %8) #11
  br label %23

14:                                               ; preds = %9
  %15 = load ptr, ptr %5, align 8, !tbaa !129
  %16 = load ptr, ptr %15, align 8, !tbaa !17
  %17 = load i32, ptr %6, align 4, !tbaa !11
  call void @clear_commit_marks_1(ptr noundef %7, ptr noundef %16, i32 noundef %17)
  %18 = load ptr, ptr %5, align 8, !tbaa !129
  %19 = getelementptr inbounds nuw ptr, ptr %18, i32 1
  store ptr %19, ptr %5, align 8, !tbaa !129
  br label %20

20:                                               ; preds = %14
  %21 = load i64, ptr %8, align 8, !tbaa !47
  %22 = add i64 %21, 1
  store i64 %22, ptr %8, align 8, !tbaa !47
  br label %9, !llvm.loop !131

23:                                               ; preds = %13
  br label %24

24:                                               ; preds = %27, %23
  %25 = load ptr, ptr %7, align 8, !tbaa !58
  %26 = icmp ne ptr %25, null
  br i1 %26, label %27, label %30

27:                                               ; preds = %24
  %28 = call ptr @pop_commit(ptr noundef %7)
  %29 = load i32, ptr %6, align 4, !tbaa !11
  call void @clear_commit_marks_1(ptr noundef %7, ptr noundef %28, i32 noundef %29)
  br label %24, !llvm.loop !132

30:                                               ; preds = %24
  call void @llvm.lifetime.end.p0(i64 8, ptr %7) #11
  ret void
}