; Function Attrs: nounwind uwtable
define dso_local void @clear_commit_marks_many(i64 noundef %0, ptr noundef readonly captures(none) %1, i32 noundef %2) local_unnamed_addr #0 {
  %.not32 = icmp eq i64 %0, 0
  br i1 %.not32, label %._crit_edge, label %.lr.ph

.lr.ph:                                           ; preds = %3
  %4 = xor i32 %2, -1
  br label %6

.preheader:                                       ; preds = %clear_commit_marks_1.exit
  %.not30 = icmp eq ptr %.6, null
  br i1 %.not30, label %._crit_edge, label %pop_commit.exit.lr.ph

pop_commit.exit.lr.ph:                            ; preds = %.preheader
  %5 = xor i32 %2, -1
  br label %pop_commit.exit

6:                                                ; preds = %.lr.ph, %clear_commit_marks_1.exit
  %.029 = phi i64 [ 0, %.lr.ph ], [ %34, %clear_commit_marks_1.exit ]
  %.0628 = phi ptr [ %1, %.lr.ph ], [ %33, %clear_commit_marks_1.exit ]
  %.02627 = phi ptr [ null, %.lr.ph ], [ %.6, %clear_commit_marks_1.exit ]
  %7 = load ptr, ptr %.0628, align 8, !tbaa !112
  %.not25.i = icmp eq ptr %7, null
  br i1 %.not25.i, label %clear_commit_marks_1.exit, label %.lr.ph28.i

.lr.ph28.i:                                       ; preds = %6, %._crit_edge.i
  %.2 = phi ptr [ %.5, %._crit_edge.i ], [ %.02627, %6 ]
  %.01426.i = phi ptr [ %32, %._crit_edge.i ], [ %7, %6 ]
  %8 = load i32, ptr %.01426.i, align 8
  %9 = lshr i32 %8, 4
  %10 = and i32 %9, %2
  %.not17.i = icmp eq i32 %10, 0
  br i1 %.not17.i, label %clear_commit_marks_1.exit, label %11

11:                                               ; preds = %.lr.ph28.i
  %12 = and i32 %9, %4
  %13 = shl nuw i32 %12, 4
  %14 = and i32 %8, 15
  %15 = or disjoint i32 %13, %14
  store i32 %15, ptr %.01426.i, align 8
  %16 = getelementptr inbounds nuw i8, ptr %.01426.i, i64 48
  %17 = load ptr, ptr %16, align 8, !tbaa !42
  %.not18.i = icmp eq ptr %17, null
  br i1 %.not18.i, label %clear_commit_marks_1.exit, label %.preheader.i

.preheader.i:                                     ; preds = %11
  %18 = getelementptr inbounds nuw i8, ptr %17, i64 8
  %19 = load ptr, ptr %18, align 8, !tbaa !48
  %.not1924.i = icmp eq ptr %19, null
  br i1 %.not1924.i, label %._crit_edge.i, label %.lr.ph.i

.lr.ph.i:                                         ; preds = %.preheader.i, %28
  %.3 = phi ptr [ %.4, %28 ], [ %.2, %.preheader.i ]
  %20 = phi ptr [ %30, %28 ], [ %19, %.preheader.i ]
  %21 = load ptr, ptr %20, align 8, !tbaa !89
  %22 = load i32, ptr %21, align 8
  %23 = lshr i32 %22, 4
  %24 = and i32 %23, %2
  %.not20.i = icmp eq i32 %24, 0
  br i1 %.not20.i, label %28, label %25

25:                                               ; preds = %.lr.ph.i
  %26 = tail call ptr @xmalloc(i64 noundef 16) #24
  store ptr %21, ptr %26, align 8, !tbaa !89
  %27 = getelementptr inbounds nuw i8, ptr %26, i64 8
  store ptr %.3, ptr %27, align 8, !tbaa !48
  br label %28

28:                                               ; preds = %25, %.lr.ph.i
  %.4 = phi ptr [ %.3, %.lr.ph.i ], [ %26, %25 ]
  %29 = getelementptr inbounds nuw i8, ptr %20, i64 8
  %30 = load ptr, ptr %29, align 8, !tbaa !48
  %.not19.i = icmp eq ptr %30, null
  br i1 %.not19.i, label %._crit_edge.loopexit.i, label %.lr.ph.i, !llvm.loop !113

._crit_edge.loopexit.i:                           ; preds = %28
  %.pre.i = load ptr, ptr %16, align 8, !tbaa !42
  br label %._crit_edge.i

._crit_edge.i:                                    ; preds = %._crit_edge.loopexit.i, %.preheader.i
  %.5 = phi ptr [ %.2, %.preheader.i ], [ %.4, %._crit_edge.loopexit.i ]
  %31 = phi ptr [ %17, %.preheader.i ], [ %.pre.i, %._crit_edge.loopexit.i ]
  %32 = load ptr, ptr %31, align 8, !tbaa !89
  %.not.i = icmp eq ptr %32, null
  br i1 %.not.i, label %clear_commit_marks_1.exit, label %.lr.ph28.i

clear_commit_marks_1.exit:                        ; preds = %.lr.ph28.i, %11, %._crit_edge.i, %6
  %.6 = phi ptr [ %.02627, %6 ], [ %.5, %._crit_edge.i ], [ %.2, %11 ], [ %.2, %.lr.ph28.i ]
  %33 = getelementptr inbounds nuw i8, ptr %.0628, i64 8
  %34 = add nuw i64 %.029, 1
  %exitcond.not = icmp eq i64 %34, %0
  br i1 %exitcond.not, label %.preheader, label %6, !llvm.loop !114

pop_commit.exit:                                  ; preds = %pop_commit.exit.lr.ph, %clear_commit_marks_1.exit22
  %.131 = phi ptr [ %.6, %pop_commit.exit.lr.ph ], [ %.12, %clear_commit_marks_1.exit22 ]
  %35 = load ptr, ptr %.131, align 8, !tbaa !89
  %36 = getelementptr inbounds nuw i8, ptr %.131, i64 8
  %37 = load ptr, ptr %36, align 8, !tbaa !48
  tail call void @free(ptr noundef nonnull %.131) #24
  %.not25.i8 = icmp eq ptr %35, null
  br i1 %.not25.i8, label %clear_commit_marks_1.exit22, label %.lr.ph28.i9

.lr.ph28.i9:                                      ; preds = %pop_commit.exit, %._crit_edge.i20
  %.8 = phi ptr [ %.11, %._crit_edge.i20 ], [ %37, %pop_commit.exit ]
  %.01426.i10 = phi ptr [ %62, %._crit_edge.i20 ], [ %35, %pop_commit.exit ]
  %38 = load i32, ptr %.01426.i10, align 8
  %39 = lshr i32 %38, 4
  %40 = and i32 %39, %2
  %.not17.i11 = icmp eq i32 %40, 0
  br i1 %.not17.i11, label %clear_commit_marks_1.exit22, label %41

41:                                               ; preds = %.lr.ph28.i9
  %42 = and i32 %39, %5
  %43 = shl nuw i32 %42, 4
  %44 = and i32 %38, 15
  %45 = or disjoint i32 %43, %44
  store i32 %45, ptr %.01426.i10, align 8
  %46 = getelementptr inbounds nuw i8, ptr %.01426.i10, i64 48
  %47 = load ptr, ptr %46, align 8, !tbaa !42
  %.not18.i12 = icmp eq ptr %47, null
  br i1 %.not18.i12, label %clear_commit_marks_1.exit22, label %.preheader.i13

.preheader.i13:                                   ; preds = %41
  %48 = getelementptr inbounds nuw i8, ptr %47, i64 8
  %49 = load ptr, ptr %48, align 8, !tbaa !48
  %.not1924.i14 = icmp eq ptr %49, null
  br i1 %.not1924.i14, label %._crit_edge.i20, label %.lr.ph.i15

.lr.ph.i15:                                       ; preds = %.preheader.i13, %58
  %.9 = phi ptr [ %.10, %58 ], [ %.8, %.preheader.i13 ]
  %50 = phi ptr [ %60, %58 ], [ %49, %.preheader.i13 ]
  %51 = load ptr, ptr %50, align 8, !tbaa !89
  %52 = load i32, ptr %51, align 8
  %53 = lshr i32 %52, 4
  %54 = and i32 %53, %2
  %.not20.i16 = icmp eq i32 %54, 0
  br i1 %.not20.i16, label %58, label %55

55:                                               ; preds = %.lr.ph.i15
  %56 = tail call ptr @xmalloc(i64 noundef 16) #24
  store ptr %51, ptr %56, align 8, !tbaa !89
  %57 = getelementptr inbounds nuw i8, ptr %56, i64 8
  store ptr %.9, ptr %57, align 8, !tbaa !48
  br label %58

58:                                               ; preds = %55, %.lr.ph.i15
  %.10 = phi ptr [ %.9, %.lr.ph.i15 ], [ %56, %55 ]
  %59 = getelementptr inbounds nuw i8, ptr %50, i64 8
  %60 = load ptr, ptr %59, align 8, !tbaa !48
  %.not19.i17 = icmp eq ptr %60, null
  br i1 %.not19.i17, label %._crit_edge.loopexit.i18, label %.lr.ph.i15, !llvm.loop !113

._crit_edge.loopexit.i18:                         ; preds = %58
  %.pre.i19 = load ptr, ptr %46, align 8, !tbaa !42
  br label %._crit_edge.i20

._crit_edge.i20:                                  ; preds = %._crit_edge.loopexit.i18, %.preheader.i13
  %.11 = phi ptr [ %.8, %.preheader.i13 ], [ %.10, %._crit_edge.loopexit.i18 ]
  %61 = phi ptr [ %47, %.preheader.i13 ], [ %.pre.i19, %._crit_edge.loopexit.i18 ]
  %62 = load ptr, ptr %61, align 8, !tbaa !89
  %.not.i21 = icmp eq ptr %62, null
  br i1 %.not.i21, label %clear_commit_marks_1.exit22, label %.lr.ph28.i9

clear_commit_marks_1.exit22:                      ; preds = %.lr.ph28.i9, %41, %._crit_edge.i20, %pop_commit.exit
  %.12 = phi ptr [ %37, %pop_commit.exit ], [ %.11, %._crit_edge.i20 ], [ %.8, %41 ], [ %.8, %.lr.ph28.i9 ]
  %.not = icmp eq ptr %.12, null
  br i1 %.not, label %._crit_edge, label %pop_commit.exit, !llvm.loop !115

._crit_edge:                                      ; preds = %clear_commit_marks_1.exit22, %3, %.preheader
  ret void
}